target datalayout = "e-m:e-p270:32:32-p271:32:32-p272:64:64-i64:64-i128:128-f80:128-n8:16:32:64-S128"
target triple = "x86_64-pc-linux-gnu"

%"class.std::__cxx11::basic_string" = type { %"struct.std::__cxx11::basic_string<char>::_Alloc_hider", i64, %union.anon }
%"struct.std::__cxx11::basic_string<char>::_Alloc_hider" = type { ptr }
%union.anon = type { i64, [8 x i8] }
%"class.flatbuffers::java::JavaGenerator" = type { %"class.flatbuffers::BaseGenerator", ptr, %"class.flatbuffers::IdlNamer", %"class.std::__cxx11::basic_string", %"struct.flatbuffers::Namespace" }
%"class.flatbuffers::BaseGenerator" = type { ptr, ptr, ptr, ptr, %"class.std::__cxx11::basic_string", %"class.std::__cxx11::basic_string", %"class.std::__cxx11::basic_string" }
%"class.flatbuffers::IdlNamer" = type { %"class.flatbuffers::Namer" }
%"class.flatbuffers::Namer" = type { ptr, %"struct.flatbuffers::Namer::Config", %"class.std::set.101" }
%"struct.flatbuffers::Namer::Config" = type { i32, i32, i32, i32, i32, i32, i32, %"class.std::__cxx11::basic_string", i32, i32, %"class.std::__cxx11::basic_string", %"class.std::__cxx11::basic_string", %"class.std::__cxx11::basic_string", %"class.std::__cxx11::basic_string", %"class.std::__cxx11::basic_string", i32, i32, %"class.std::__cxx11::basic_string", %"class.std::__cxx11::basic_string", %"class.std::__cxx11::basic_string" }
%"class.std::set.101" = type { %"class.std::_Rb_tree.102" }
%"class.std::_Rb_tree.102" = type { %"struct.std::_Rb_tree<std::__cxx11::basic_string<char>, std::__cxx11::basic_string<char>, std::_Identity<std::__cxx11::basic_string<char>>, std::less<std::__cxx11::basic_string<char>>>::_Rb_tree_impl" }
%"struct.std::_Rb_tree<std::__cxx11::basic_string<char>, std::__cxx11::basic_string<char>, std::_Identity<std::__cxx11::basic_string<char>>, std::less<std::__cxx11::basic_string<char>>>::_Rb_tree_impl" = type { [8 x i8], %"struct.std::_Rb_tree_header" }
%"struct.std::_Rb_tree_header" = type { %"struct.std::_Rb_tree_node_base", i64 }
%"struct.std::_Rb_tree_node_base" = type { i32, ptr, ptr, ptr }
%"struct.flatbuffers::Namespace" = type { %"class.std::vector", i64 }
%"class.std::vector" = type { %"struct.std::_Vector_base" }
%"struct.std::_Vector_base" = type { %"struct.std::_Vector_base<std::__cxx11::basic_string<char>, std::allocator<std::__cxx11::basic_string<char>>>::_Vector_impl" }
%"struct.std::_Vector_base<std::__cxx11::basic_string<char>, std::allocator<std::__cxx11::basic_string<char>>>::_Vector_impl" = type { %"struct.std::_Vector_base<std::__cxx11::basic_string<char>, std::allocator<std::__cxx11::basic_string<char>>>::_Vector_impl_data" }
%"struct.std::_Vector_base<std::__cxx11::basic_string<char>, std::allocator<std::__cxx11::basic_string<char>>>::_Vector_impl_data" = type { ptr, ptr, ptr }
%"class.flatbuffers::Parser" = type { %"struct.flatbuffers::ParserState", %"class.flatbuffers::SymbolTable", %"class.flatbuffers::SymbolTable.21", %"class.flatbuffers::SymbolTable.32", %"class.flatbuffers::SymbolTable.43", %"class.std::vector.54", ptr, ptr, %"class.std::__cxx11::basic_string", %"class.flatbuffers::FlatBufferBuilderImpl", %"class.flexbuffers::Builder", %"class.flexbuffers::Reference", ptr, %"class.std::__cxx11::basic_string", %"class.std::__cxx11::basic_string", %"class.std::map.80", %"class.std::map.86", %"class.std::vector", %"class.std::map.91", %"struct.flatbuffers::IDLOptions", i8, i8, i64, %"class.std::__cxx11::basic_string", ptr, %"class.std::vector.96", %"class.std::set.101", i32, i32 }
%"struct.flatbuffers::ParserState" = type { ptr, ptr, ptr, i32, i32, i8, %"class.std::__cxx11::basic_string", %"class.std::vector" }
%"class.flatbuffers::SymbolTable" = type { %"class.std::map", %"class.std::vector.16" }
%"class.std::map" = type { %"class.std::_Rb_tree" }
%"class.std::_Rb_tree" = type { %"struct.std::_Rb_tree<std::__cxx11::basic_string<char>, std::pair<const std::__cxx11::basic_string<char>, flatbuffers::Type *>, std::_Select1st<std::pair<const std::__cxx11::basic_string<char>, flatbuffers::Type *>>, std::less<std::__cxx11::basic_string<char>>>::_Rb_tree_impl" }
%"struct.std::_Rb_tree<std::__cxx11::basic_string<char>, std::pair<const std::__cxx11::basic_string<char>, flatbuffers::Type *>, std::_Select1st<std::pair<const std::__cxx11::basic_string<char>, flatbuffers::Type *>>, std::less<std::__cxx11::basic_string<char>>>::_Rb_tree_impl" = type { [8 x i8], %"struct.std::_Rb_tree_header" }
%"class.std::vector.16" = type { %"struct.std::_Vector_base.17" }
%"struct.std::_Vector_base.17" = type { %"struct.std::_Vector_base<flatbuffers::Type *, std::allocator<flatbuffers::Type *>>::_Vector_impl" }
%"struct.std::_Vector_base<flatbuffers::Type *, std::allocator<flatbuffers::Type *>>::_Vector_impl" = type { %"struct.std::_Vector_base<flatbuffers::Type *, std::allocator<flatbuffers::Type *>>::_Vector_impl_data" }
%"struct.std::_Vector_base<flatbuffers::Type *, std::allocator<flatbuffers::Type *>>::_Vector_impl_data" = type { ptr, ptr, ptr }
%"class.flatbuffers::SymbolTable.21" = type { %"class.std::map.22", %"class.std::vector.27" }
%"class.std::map.22" = type { %"class.std::_Rb_tree.23" }
%"class.std::_Rb_tree.23" = type { %"struct.std::_Rb_tree<std::__cxx11::basic_string<char>, std::pair<const std::__cxx11::basic_string<char>, flatbuffers::StructDef *>, std::_Select1st<std::pair<const std::__cxx11::basic_string<char>, flatbuffers::StructDef *>>, std::less<std::__cxx11::basic_string<char>>>::_Rb_tree_impl" }
%"struct.std::_Rb_tree<std::__cxx11::basic_string<char>, std::pair<const std::__cxx11::basic_string<char>, flatbuffers::StructDef *>, std::_Select1st<std::pair<const std::__cxx11::basic_string<char>, flatbuffers::StructDef *>>, std::less<std::__cxx11::basic_string<char>>>::_Rb_tree_impl" = type { [8 x i8], %"struct.std::_Rb_tree_header" }
%"class.std::vector.27" = type { %"struct.std::_Vector_base.28" }
%"struct.std::_Vector_base.28" = type { %"struct.std::_Vector_base<flatbuffers::StructDef *, std::allocator<flatbuffers::StructDef *>>::_Vector_impl" }
%"struct.std::_Vector_base<flatbuffers::StructDef *, std::allocator<flatbuffers::StructDef *>>::_Vector_impl" = type { %"struct.std::_Vector_base<flatbuffers::StructDef *, std::allocator<flatbuffers::StructDef *>>::_Vector_impl_data" }
%"struct.std::_Vector_base<flatbuffers::StructDef *, std::allocator<flatbuffers::StructDef *>>::_Vector_impl_data" = type { ptr, ptr, ptr }
%"class.flatbuffers::SymbolTable.32" = type { %"class.std::map.33", %"class.std::vector.38" }
%"class.std::map.33" = type { %"class.std::_Rb_tree.34" }
%"class.std::_Rb_tree.34" = type { %"struct.std::_Rb_tree<std::__cxx11::basic_string<char>, std::pair<const std::__cxx11::basic_string<char>, flatbuffers::EnumDef *>, std::_Select1st<std::pair<const std::__cxx11::basic_string<char>, flatbuffers::EnumDef *>>, std::less<std::__cxx11::basic_string<char>>>::_Rb_tree_impl" }
%"struct.std::_Rb_tree<std::__cxx11::basic_string<char>, std::pair<const std::__cxx11::basic_string<char>, flatbuffers::EnumDef *>, std::_Select1st<std::pair<const std::__cxx11::basic_string<char>, flatbuffers::EnumDef *>>, std::less<std::__cxx11::basic_string<char>>>::_Rb_tree_impl" = type { [8 x i8], %"struct.std::_Rb_tree_header" }
%"class.std::vector.38" = type { %"struct.std::_Vector_base.39" }
%"struct.std::_Vector_base.39" = type { %"struct.std::_Vector_base<flatbuffers::EnumDef *, std::allocator<flatbuffers::EnumDef *>>::_Vector_impl" }
%"struct.std::_Vector_base<flatbuffers::EnumDef *, std::allocator<flatbuffers::EnumDef *>>::_Vector_impl" = type { %"struct.std::_Vector_base<flatbuffers::EnumDef *, std::allocator<flatbuffers::EnumDef *>>::_Vector_impl_data" }
%"struct.std::_Vector_base<flatbuffers::EnumDef *, std::allocator<flatbuffers::EnumDef *>>::_Vector_impl_data" = type { ptr, ptr, ptr }
%"class.flatbuffers::SymbolTable.43" = type { %"class.std::map.44", %"class.std::vector.49" }
%"class.std::map.44" = type { %"class.std::_Rb_tree.45" }
%"class.std::_Rb_tree.45" = type { %"struct.std::_Rb_tree<std::__cxx11::basic_string<char>, std::pair<const std::__cxx11::basic_string<char>, flatbuffers::ServiceDef *>, std::_Select1st<std::pair<const std::__cxx11::basic_string<char>, flatbuffers::ServiceDef *>>, std::less<std::__cxx11::basic_string<char>>>::_Rb_tree_impl" }
%"struct.std::_Rb_tree<std::__cxx11::basic_string<char>, std::pair<const std::__cxx11::basic_string<char>, flatbuffers::ServiceDef *>, std::_Select1st<std::pair<const std::__cxx11::basic_string<char>, flatbuffers::ServiceDef *>>, std::less<std::__cxx11::basic_string<char>>>::_Rb_tree_impl" = type { [8 x i8], %"struct.std::_Rb_tree_header" }
%"class.std::vector.49" = type { %"struct.std::_Vector_base.50" }
%"struct.std::_Vector_base.50" = type { %"struct.std::_Vector_base<flatbuffers::ServiceDef *, std::allocator<flatbuffers::ServiceDef *>>::_Vector_impl" }
%"struct.std::_Vector_base<flatbuffers::ServiceDef *, std::allocator<flatbuffers::ServiceDef *>>::_Vector_impl" = type { %"struct.std::_Vector_base<flatbuffers::ServiceDef *, std::allocator<flatbuffers::ServiceDef *>>::_Vector_impl_data" }
%"struct.std::_Vector_base<flatbuffers::ServiceDef *, std::allocator<flatbuffers::ServiceDef *>>::_Vector_impl_data" = type { ptr, ptr, ptr }
%"class.std::vector.54" = type { %"struct.std::_Vector_base.55" }
%"struct.std::_Vector_base.55" = type { %"struct.std::_Vector_base<flatbuffers::Namespace *, std::allocator<flatbuffers::Namespace *>>::_Vector_impl" }
%"struct.std::_Vector_base<flatbuffers::Namespace *, std::allocator<flatbuffers::Namespace *>>::_Vector_impl" = type { %"struct.std::_Vector_base<flatbuffers::Namespace *, std::allocator<flatbuffers::Namespace *>>::_Vector_impl_data" }
%"struct.std::_Vector_base<flatbuffers::Namespace *, std::allocator<flatbuffers::Namespace *>>::_Vector_impl_data" = type { ptr, ptr, ptr }
%"class.flatbuffers::FlatBufferBuilderImpl" = type { %"class.flatbuffers::vector_downward", i32, i16, i64, i8, i8, i64, i8, i8, ptr }
%"class.flatbuffers::vector_downward" = type { ptr, i8, i64, i32, i64, i64, i32, ptr, ptr, ptr }
%"class.flexbuffers::Builder" = type { %"class.std::vector.59", %"class.std::vector.64", i8, i8, i32, i32, %"class.std::set", %"class.std::set.74" }
%"class.std::vector.59" = type { %"struct.std::_Vector_base.60" }
%"struct.std::_Vector_base.60" = type { %"struct.std::_Vector_base<unsigned char, std::allocator<unsigned char>>::_Vector_impl" }
%"struct.std::_Vector_base<unsigned char, std::allocator<unsigned char>>::_Vector_impl" = type { %"struct.std::_Vector_base<unsigned char, std::allocator<unsigned char>>::_Vector_impl_data" }
%"struct.std::_Vector_base<unsigned char, std::allocator<unsigned char>>::_Vector_impl_data" = type { ptr, ptr, ptr }
%"class.std::vector.64" = type { %"struct.std::_Vector_base.65" }
%"struct.std::_Vector_base.65" = type { %"struct.std::_Vector_base<flexbuffers::Builder::Value, std::allocator<flexbuffers::Builder::Value>>::_Vector_impl" }
%"struct.std::_Vector_base<flexbuffers::Builder::Value, std::allocator<flexbuffers::Builder::Value>>::_Vector_impl" = type { %"struct.std::_Vector_base<flexbuffers::Builder::Value, std::allocator<flexbuffers::Builder::Value>>::_Vector_impl_data" }
%"struct.std::_Vector_base<flexbuffers::Builder::Value, std::allocator<flexbuffers::Builder::Value>>::_Vector_impl_data" = type { ptr, ptr, ptr }
%"class.std::set" = type { %"class.std::_Rb_tree.69" }
%"class.std::_Rb_tree.69" = type { %"struct.std::_Rb_tree<unsigned long, unsigned long, std::_Identity<unsigned long>, flexbuffers::Builder::KeyOffsetCompare>::_Rb_tree_impl" }
%"struct.std::_Rb_tree<unsigned long, unsigned long, std::_Identity<unsigned long>, flexbuffers::Builder::KeyOffsetCompare>::_Rb_tree_impl" = type { %"struct.std::_Rb_tree_key_compare.73", %"struct.std::_Rb_tree_header" }
%"struct.std::_Rb_tree_key_compare.73" = type { %"struct.flexbuffers::Builder::KeyOffsetCompare" }
%"struct.flexbuffers::Builder::KeyOffsetCompare" = type { ptr }
%"class.std::set.74" = type { %"class.std::_Rb_tree.75" }
%"class.std::_Rb_tree.75" = type { %"struct.std::_Rb_tree<std::pair<unsigned long, unsigned long>, std::pair<unsigned long, unsigned long>, std::_Identity<std::pair<unsigned long, unsigned long>>, flexbuffers::Builder::StringOffsetCompare>::_Rb_tree_impl" }
%"struct.std::_Rb_tree<std::pair<unsigned long, unsigned long>, std::pair<unsigned long, unsigned long>, std::_Identity<std::pair<unsigned long, unsigned long>>, flexbuffers::Builder::StringOffsetCompare>::_Rb_tree_impl" = type { %"struct.std::_Rb_tree_key_compare.79", %"struct.std::_Rb_tree_header" }
%"struct.std::_Rb_tree_key_compare.79" = type { %"struct.flexbuffers::Builder::StringOffsetCompare" }
%"struct.flexbuffers::Builder::StringOffsetCompare" = type { ptr }
%"class.flexbuffers::Reference" = type { ptr, i8, i8, i32 }
%"class.std::map.80" = type { %"class.std::_Rb_tree.81" }
%"class.std::_Rb_tree.81" = type { %"struct.std::_Rb_tree<unsigned long, std::pair<const unsigned long, std::__cxx11::basic_string<char>>, std::_Select1st<std::pair<const unsigned long, std::__cxx11::basic_string<char>>>, std::less<unsigned long>>::_Rb_tree_impl" }
%"struct.std::_Rb_tree<unsigned long, std::pair<const unsigned long, std::__cxx11::basic_string<char>>, std::_Select1st<std::pair<const unsigned long, std::__cxx11::basic_string<char>>>, std::less<unsigned long>>::_Rb_tree_impl" = type { [8 x i8], %"struct.std::_Rb_tree_header" }
%"class.std::map.86" = type { %"class.std::_Rb_tree.87" }
%"class.std::_Rb_tree.87" = type { %"struct.std::_Rb_tree<std::__cxx11::basic_string<char>, std::pair<const std::__cxx11::basic_string<char>, std::set<flatbuffers::IncludedFile>>, std::_Select1st<std::pair<const std::__cxx11::basic_string<char>, std::set<flatbuffers::IncludedFile>>>, std::less<std::__cxx11::basic_string<char>>>::_Rb_tree_impl" }
%"struct.std::_Rb_tree<std::__cxx11::basic_string<char>, std::pair<const std::__cxx11::basic_string<char>, std::set<flatbuffers::IncludedFile>>, std::_Select1st<std::pair<const std::__cxx11::basic_string<char>, std::set<flatbuffers::IncludedFile>>>, std::less<std::__cxx11::basic_string<char>>>::_Rb_tree_impl" = type { [8 x i8], %"struct.std::_Rb_tree_header" }
%"class.std::map.91" = type { %"class.std::_Rb_tree.92" }
%"class.std::_Rb_tree.92" = type { %"struct.std::_Rb_tree<std::__cxx11::basic_string<char>, std::pair<const std::__cxx11::basic_string<char>, bool>, std::_Select1st<std::pair<const std::__cxx11::basic_string<char>, bool>>, std::less<std::__cxx11::basic_string<char>>>::_Rb_tree_impl" }
%"struct.std::_Rb_tree<std::__cxx11::basic_string<char>, std::pair<const std::__cxx11::basic_string<char>, bool>, std::_Select1st<std::pair<const std::__cxx11::basic_string<char>, bool>>, std::less<std::__cxx11::basic_string<char>>>::_Rb_tree_impl" = type { [8 x i8], %"struct.std::_Rb_tree_header" }
%"struct.flatbuffers::IDLOptions" = type <{ i8, i8, i8, i8, i32, i8, i8, i8, i8, i8, i8, i8, i8, i8, i8, i8, i8, i8, i8, i8, i8, %"class.std::__cxx11::basic_string", %"class.std::__cxx11::basic_string", i8, [3 x i8], i32, i8, i8, [6 x i8], %"class.std::__cxx11::basic_string", i8, i8, i8, [5 x i8], %"class.std::__cxx11::basic_string", %"class.std::__cxx11::basic_string", i8, i8, i8, [5 x i8], %"class.std::__cxx11::basic_string", i8, i8, i8, i8, i8, [3 x i8], %"class.std::__cxx11::basic_string", %"class.std::__cxx11::basic_string", %"class.std::__cxx11::basic_string", i8, i8, [6 x i8], %"class.std::__cxx11::basic_string", i8, i8, i8, [5 x i8], %"class.std::vector", %"class.std::__cxx11::basic_string", i8, [7 x i8], %"class.std::__cxx11::basic_string", %"class.std::__cxx11::basic_string", %"class.std::__cxx11::basic_string", i8, i8, [6 x i8], %"class.std::__cxx11::basic_string", i8, i8, i8, i8, i8, i8, i8, i8, i8, i8, i8, i8, [4 x i8], %"class.std::__cxx11::basic_string", i8, i8, [2 x i8], i32, i32, i8, i8, i8, i8, i64, i8, i8, [6 x i8], %"class.std::__cxx11::basic_string", i8, [7 x i8], %"class.std::__cxx11::basic_string", %"class.std::vector", i8, [7 x i8] }>
%"class.std::vector.96" = type { %"struct.std::_Vector_base.97" }
%"struct.std::_Vector_base.97" = type { %"struct.std::_Vector_base<std::pair<flatbuffers::Value, flatbuffers::FieldDef *>, std::allocator<std::pair<flatbuffers::Value, flatbuffers::FieldDef *>>>::_Vector_impl" }
%"struct.std::_Vector_base<std::pair<flatbuffers::Value, flatbuffers::FieldDef *>, std::allocator<std::pair<flatbuffers::Value, flatbuffers::FieldDef *>>>::_Vector_impl" = type { %"struct.std::_Vector_base<std::pair<flatbuffers::Value, flatbuffers::FieldDef *>, std::allocator<std::pair<flatbuffers::Value, flatbuffers::FieldDef *>>>::_Vector_impl_data" }
%"struct.std::_Vector_base<std::pair<flatbuffers::Value, flatbuffers::FieldDef *>, std::allocator<std::pair<flatbuffers::Value, flatbuffers::FieldDef *>>>::_Vector_impl_data" = type { ptr, ptr, ptr }

; Function Attrs: mustprogress uwtable
define internal noundef zeroext i1 @_ZN11flatbuffersL12GenerateJavaERKNS_6ParserERKNSt7__cxx1112basic_stringIcSt11char_traitsIcESaIcEEESA_(ptr noundef nonnull align 8 dereferenceable(1920) %0, ptr noundef nonnull align 8 dereferenceable(32) %1, ptr noundef nonnull align 8 dereferenceable(32) %2) #4 personality ptr @__gxx_personality_v0 {
  %4 = alloca ptr, align 8
  %5 = alloca ptr, align 8
  %6 = alloca ptr, align 8
  %7 = alloca %"class.flatbuffers::java::JavaGenerator", align 8
  %8 = alloca ptr, align 8
  %9 = alloca i32, align 4
  store ptr %0, ptr %4, align 8, !tbaa !38
  store ptr %1, ptr %5, align 8, !tbaa !19
  store ptr %2, ptr %6, align 8, !tbaa !19
  call void @llvm.lifetime.start.p0(i64 592, ptr %7) #3
  %10 = load ptr, ptr %4, align 8, !tbaa !38
  %11 = load ptr, ptr %5, align 8, !tbaa !19
  %12 = load ptr, ptr %6, align 8, !tbaa !19
  %13 = load ptr, ptr %4, align 8, !tbaa !38
  %14 = getelementptr inbounds nuw %"class.flatbuffers::Parser", ptr %13, i32 0, i32 19
  %15 = getelementptr inbounds nuw %"struct.flatbuffers::IDLOptions", ptr %14, i32 0, i32 29
  call void @_ZN11flatbuffers4java13JavaGeneratorC2ERKNS_6ParserERKNSt7__cxx1112basic_stringIcSt11char_traitsIcESaIcEEESC_SC_(ptr noundef nonnull align 8 dereferenceable(592) %7, ptr noundef nonnull align 8 dereferenceable(1920) %10, ptr noundef nonnull align 8 dereferenceable(32) %11, ptr noundef nonnull align 8 dereferenceable(32) %12, ptr noundef nonnull align 8 dereferenceable(32) %15)
  %16 = invoke noundef zeroext i1 @_ZN11flatbuffers4java13JavaGenerator8generateEv(ptr noundef nonnull align 8 dereferenceable(592) %7)
          to label %17 unwind label %18

17:                                               ; preds = %3
  call void @_ZN11flatbuffers4java13JavaGeneratorD2Ev(ptr noundef nonnull align 8 dereferenceable(592) %7) #3
  call void @llvm.lifetime.end.p0(i64 592, ptr %7) #3
  ret i1 %16

18:                                               ; preds = %3
  %19 = landingpad { ptr, i32 }
          cleanup
  %20 = extractvalue { ptr, i32 } %19, 0
  store ptr %20, ptr %8, align 8
  %21 = extractvalue { ptr, i32 } %19, 1
  store i32 %21, ptr %9, align 4
  call void @_ZN11flatbuffers4java13JavaGeneratorD2Ev(ptr noundef nonnull align 8 dereferenceable(592) %7) #3
  call void @llvm.lifetime.end.p0(i64 592, ptr %7) #3
  br label %22

22:                                               ; preds = %18
  %23 = load ptr, ptr %8, align 8
  %24 = load i32, ptr %9, align 4
  %25 = insertvalue { ptr, i32 } poison, ptr %23, 0
  %26 = insertvalue { ptr, i32 } %25, i32 %24, 1
  resume { ptr, i32 } %26
}

; Function Attrs: mustprogress uwtable
define internal noundef i32 @_ZN11flatbuffers12_GLOBAL__N_117JavaCodeGenerator12GenerateCodeERKNS_6ParserERKNSt7__cxx1112basic_stringIcSt11char_traitsIcESaIcEEESC_(ptr noundef nonnull align 8 dereferenceable(40) %0, ptr noundef nonnull align 8 dereferenceable(1920) %1, ptr noundef nonnull align 8 dereferenceable(32) %2, ptr noundef nonnull align 8 dereferenceable(32) %3) unnamed_addr #4 align 2 {
  %5 = alloca i32, align 4
  %6 = alloca ptr, align 8
  %7 = alloca ptr, align 8
  %8 = alloca ptr, align 8
  %9 = alloca ptr, align 8
  store ptr %0, ptr %6, align 8, !tbaa !11
  store ptr %1, ptr %7, align 8, !tbaa !38
  store ptr %2, ptr %8, align 8, !tbaa !19
  store ptr %3, ptr %9, align 8, !tbaa !19
  %10 = load ptr, ptr %7, align 8, !tbaa !38
  %11 = load ptr, ptr %8, align 8, !tbaa !19
  %12 = load ptr, ptr %9, align 8, !tbaa !19
  %13 = call noundef zeroext i1 @_ZN11flatbuffersL12GenerateJavaERKNS_6ParserERKNSt7__cxx1112basic_stringIcSt11char_traitsIcESaIcEEESA_(ptr noundef nonnull align 8 dereferenceable(1920) %10, ptr noundef nonnull align 8 dereferenceable(32) %11, ptr noundef nonnull align 8 dereferenceable(32) %12)
  br i1 %13, label %15, label %14

14:                                               ; preds = %4
  store i32 1, ptr %5, align 4
  br label %16

15:                                               ; preds = %4
  store i32 0, ptr %5, align 4
  br label %16

16:                                               ; preds = %15, %14
  %17 = load i32, ptr %5, align 4
  ret i32 %17
}